target datalayout = "e-m:e-p270:32:32-p271:32:32-p272:64:64-i64:64-i128:128-f80:128-n8:16:32:64-S128"
target triple = "x86_64-pc-linux-gnu"

%struct.X509_POLICY_CACHE_st = type { ptr, ptr, i64, i64, i64 }
%struct.X509_POLICY_DATA_st = type { i32, ptr, ptr, ptr }

; Function Attrs: inlinehint nounwind uwtable
define internal ptr @sk_X509_POLICY_DATA_value(ptr noundef %0, i32 noundef %1) #2 {
  %3 = alloca ptr, align 8
  %4 = alloca i32, align 4
  store ptr %0, ptr %3, align 8, !tbaa !14
  store i32 %1, ptr %4, align 4, !tbaa !56
  %5 = load ptr, ptr %3, align 8, !tbaa !14
  %6 = load i32, ptr %4, align 4, !tbaa !56
  %7 = call ptr @OPENSSL_sk_value(ptr noundef %5, i32 noundef %6)
  ret ptr %7
}

; Function Attrs: inlinehint nounwind uwtable
define internal i32 @sk_X509_POLICY_DATA_find(ptr noundef %0, ptr noundef %1) #2 {
  %3 = alloca ptr, align 8
  %4 = alloca ptr, align 8
  store ptr %0, ptr %3, align 8, !tbaa !14
  store ptr %1, ptr %4, align 8, !tbaa !66
  %5 = load ptr, ptr %3, align 8, !tbaa !14
  %6 = load ptr, ptr %4, align 8, !tbaa !66
  %7 = call i32 @OPENSSL_sk_find(ptr noundef %5, ptr noundef %6)
  ret i32 %7
}

; Function Attrs: nounwind uwtable
define ptr @ossl_policy_cache_find_data(ptr noundef %0, ptr noundef %1) #0 {
  %3 = alloca ptr, align 8
  %4 = alloca ptr, align 8
  %5 = alloca i32, align 4
  %6 = alloca %struct.X509_POLICY_DATA_st, align 8
  store ptr %0, ptr %3, align 8, !tbaa !3
  store ptr %1, ptr %4, align 8, !tbaa !61
  call void @llvm.lifetime.start.p0(i64 4, ptr %5) #4
  call void @llvm.lifetime.start.p0(i64 32, ptr %6) #4
  %7 = load ptr, ptr %4, align 8, !tbaa !61
  %8 = getelementptr inbounds nuw %struct.X509_POLICY_DATA_st, ptr %6, i32 0, i32 1
  store ptr %7, ptr %8, align 8, !tbaa !62
  %9 = load ptr, ptr %3, align 8, !tbaa !3
  %10 = getelementptr inbounds nuw %struct.X509_POLICY_CACHE_st, ptr %9, i32 0, i32 1
  %11 = load ptr, ptr %10, align 8, !tbaa !13
  %12 = call i32 @sk_X509_POLICY_DATA_find(ptr noundef %11, ptr noundef %6)
  store i32 %12, ptr %5, align 4, !tbaa !56
  %13 = load ptr, ptr %3, align 8, !tbaa !3
  %14 = getelementptr inbounds nuw %struct.X509_POLICY_CACHE_st, ptr %13, i32 0, i32 1
  %15 = load ptr, ptr %14, align 8, !tbaa !13
  %16 = load i32, ptr %5, align 4, !tbaa !56
  %17 = call ptr @sk_X509_POLICY_DATA_value(ptr noundef %15, i32 noundef %16)
  call void @llvm.lifetime.end.p0(i64 32, ptr %6) #4
  call void @llvm.lifetime.end.p0(i64 4, ptr %5) #4
  ret ptr %17
}