; Function Attrs: nounwind uwtable
define ptr @ossl_policy_cache_find_data(ptr noundef readonly captures(none) %0, ptr noundef %1) local_unnamed_addr #0 {
  %3 = alloca %struct.X509_POLICY_DATA_st, align 8
  call void @llvm.lifetime.start.p0(i64 32, ptr nonnull %3) #4
  %4 = getelementptr inbounds nuw i8, ptr %3, i64 8
  store ptr %1, ptr %4, align 8, !tbaa !47
  %5 = getelementptr inbounds nuw i8, ptr %0, i64 8
  %6 = load ptr, ptr %5, align 8, !tbaa !11
  %7 = call i32 @OPENSSL_sk_find(ptr noundef %6, ptr noundef nonnull %3) #4
  %8 = load ptr, ptr %5, align 8, !tbaa !11
  %9 = call ptr @OPENSSL_sk_value(ptr noundef %8, i32 noundef %7) #4
  call void @llvm.lifetime.end.p0(i64 32, ptr nonnull %3) #4
  ret ptr %9
}